target datalayout = "e-m:e-p270:32:32-p271:32:32-p272:64:64-i64:64-i128:128-f80:128-n8:16:32:64-S128"
target triple = "x86_64-pc-linux-gnu"

%struct.ml_dsa_key_st = type { ptr, ptr, ptr, ptr, [32 x i8], [64 x i8], [32 x i8], ptr, ptr, ptr, i32, i32, %struct.vector_st, %struct.vector_st, %struct.vector_st, %struct.vector_st }
%struct.vector_st = type { ptr, i64 }
%struct.ml_dsa_params_st = type { ptr, i32, i32, i32, i32, i32, i64, i64, i32, i32, i32, i32, i64, i64, i64 }

@.str = private unnamed_addr constant [38 x i8] c"../openssl/crypto/ml_dsa/ml_dsa_key.c\00", align 1

; Function Attrs: nounwind uwtable
define i32 @ossl_ml_dsa_set_prekey(ptr noundef %0, i32 noundef %1, i32 noundef %2, ptr noundef %3, i64 noundef %4, ptr noundef %5, i64 noundef %6) #0 {
  %8 = alloca i32, align 4
  %9 = alloca ptr, align 8
  %10 = alloca i32, align 4
  %11 = alloca i32, align 4
  %12 = alloca ptr, align 8
  %13 = alloca i64, align 8
  %14 = alloca ptr, align 8
  %15 = alloca i64, align 8
  %16 = alloca i32, align 4
  %17 = alloca i32, align 4
  store ptr %0, ptr %9, align 8, !tbaa !3
  store i32 %1, ptr %10, align 4, !tbaa !21
  store i32 %2, ptr %11, align 4, !tbaa !21
  store ptr %3, ptr %12, align 8, !tbaa !22
  store i64 %4, ptr %13, align 8, !tbaa !23
  store ptr %5, ptr %14, align 8, !tbaa !22
  store i64 %6, ptr %15, align 8, !tbaa !23
  call void @llvm.lifetime.start.p0(i64 4, ptr %16) #7
  store i32 0, ptr %16, align 4, !tbaa !21
  %18 = load ptr, ptr %9, align 8, !tbaa !3
  %19 = icmp eq ptr %18, null
  br i1 %19, label %52, label %20

20:                                               ; preds = %7
  %21 = load ptr, ptr %9, align 8, !tbaa !3
  %22 = getelementptr inbounds nuw %struct.ml_dsa_key_st, ptr %21, i32 0, i32 7
  %23 = load ptr, ptr %22, align 8, !tbaa !24
  %24 = icmp ne ptr %23, null
  br i1 %24, label %52, label %25

25:                                               ; preds = %20
  %26 = load ptr, ptr %9, align 8, !tbaa !3
  %27 = getelementptr inbounds nuw %struct.ml_dsa_key_st, ptr %26, i32 0, i32 8
  %28 = load ptr, ptr %27, align 8, !tbaa !25
  %29 = icmp ne ptr %28, null
  br i1 %29, label %52, label %30

30:                                               ; preds = %25
  %31 = load ptr, ptr %14, align 8, !tbaa !22
  %32 = icmp ne ptr %31, null
  br i1 %32, label %33, label %41

33:                                               ; preds = %30
  %34 = load i64, ptr %15, align 8, !tbaa !23
  %35 = load ptr, ptr %9, align 8, !tbaa !3
  %36 = getelementptr inbounds nuw %struct.ml_dsa_key_st, ptr %35, i32 0, i32 1
  %37 = load ptr, ptr %36, align 8, !tbaa !8
  %38 = getelementptr inbounds nuw %struct.ml_dsa_params_st, ptr %37, i32 0, i32 12
  %39 = load i64, ptr %38, align 8, !tbaa !26
  %40 = icmp ne i64 %34, %39
  br i1 %40, label %52, label %41

41:                                               ; preds = %33, %30
  %42 = load ptr, ptr %12, align 8, !tbaa !22
  %43 = icmp ne ptr %42, null
  br i1 %43, label %44, label %47

44:                                               ; preds = %41
  %45 = load i64, ptr %13, align 8, !tbaa !23
  %46 = icmp ne i64 %45, 32
  br i1 %46, label %52, label %47

47:                                               ; preds = %44, %41
  %48 = load ptr, ptr %9, align 8, !tbaa !3
  %49 = getelementptr inbounds nuw %struct.ml_dsa_key_st, ptr %48, i32 0, i32 9
  %50 = load ptr, ptr %49, align 8, !tbaa !18
  %51 = icmp ne ptr %50, null
  br i1 %51, label %52, label %53

52:                                               ; preds = %47, %44, %33, %25, %20, %7
  store i32 0, ptr %8, align 4
  store i32 1, ptr %17, align 4
  br label %106

53:                                               ; preds = %47
  %54 = load ptr, ptr %14, align 8, !tbaa !22
  %55 = icmp ne ptr %54, null
  br i1 %55, label %56, label %64

56:                                               ; preds = %53
  %57 = load ptr, ptr %14, align 8, !tbaa !22
  %58 = load i64, ptr %15, align 8, !tbaa !23
  %59 = call noalias ptr @CRYPTO_memdup(ptr noundef %57, i64 noundef %58, ptr noundef @.str, i32 noundef 56)
  %60 = load ptr, ptr %9, align 8, !tbaa !3
  %61 = getelementptr inbounds nuw %struct.ml_dsa_key_st, ptr %60, i32 0, i32 8
  store ptr %59, ptr %61, align 8, !tbaa !25
  %62 = icmp eq ptr %59, null
  br i1 %62, label %63, label %64

63:                                               ; preds = %56
  br label %90

64:                                               ; preds = %56, %53
  %65 = load ptr, ptr %12, align 8, !tbaa !22
  %66 = icmp ne ptr %65, null
  br i1 %66, label %67, label %75

67:                                               ; preds = %64
  %68 = load ptr, ptr %12, align 8, !tbaa !22
  %69 = load i64, ptr %13, align 8, !tbaa !23
  %70 = call noalias ptr @CRYPTO_memdup(ptr noundef %68, i64 noundef %69, ptr noundef @.str, i32 noundef 59)
  %71 = load ptr, ptr %9, align 8, !tbaa !3
  %72 = getelementptr inbounds nuw %struct.ml_dsa_key_st, ptr %71, i32 0, i32 9
  store ptr %70, ptr %72, align 8, !tbaa !18
  %73 = icmp eq ptr %70, null
  br i1 %73, label %74, label %75

74:                                               ; preds = %67
  br label %90

75:                                               ; preds = %67, %64
  %76 = load i32, ptr %10, align 4, !tbaa !21
  %77 = icmp sge i32 %76, 0
  br i1 %77, label %78, label %82

78:                                               ; preds = %75
  %79 = load i32, ptr %10, align 4, !tbaa !21
  %80 = load ptr, ptr %9, align 8, !tbaa !3
  %81 = getelementptr inbounds nuw %struct.ml_dsa_key_st, ptr %80, i32 0, i32 11
  store i32 %79, ptr %81, align 4, !tbaa !19
  br label %82

82:                                               ; preds = %78, %75
  %83 = load i32, ptr %11, align 4, !tbaa !21
  %84 = icmp sge i32 %83, 0
  br i1 %84, label %85, label %89

85:                                               ; preds = %82
  %86 = load i32, ptr %11, align 4, !tbaa !21
  %87 = load ptr, ptr %9, align 8, !tbaa !3
  %88 = getelementptr inbounds nuw %struct.ml_dsa_key_st, ptr %87, i32 0, i32 10
  store i32 %86, ptr %88, align 8, !tbaa !20
  br label %89

89:                                               ; preds = %85, %82
  store i32 1, ptr %16, align 4, !tbaa !21
  br label %90

90:                                               ; preds = %89, %74, %63
  %91 = load i32, ptr %16, align 4, !tbaa !21
  %92 = icmp ne i32 %91, 0
  br i1 %92, label %104, label %93

93:                                               ; preds = %90
  %94 = load ptr, ptr %9, align 8, !tbaa !3
  %95 = getelementptr inbounds nuw %struct.ml_dsa_key_st, ptr %94, i32 0, i32 8
  %96 = load ptr, ptr %95, align 8, !tbaa !25
  call void @CRYPTO_free(ptr noundef %96, ptr noundef @.str, i32 noundef 69)
  %97 = load ptr, ptr %9, align 8, !tbaa !3
  %98 = getelementptr inbounds nuw %struct.ml_dsa_key_st, ptr %97, i32 0, i32 9
  %99 = load ptr, ptr %98, align 8, !tbaa !18
  call void @CRYPTO_free(ptr noundef %99, ptr noundef @.str, i32 noundef 70)
  %100 = load ptr, ptr %9, align 8, !tbaa !3
  %101 = getelementptr inbounds nuw %struct.ml_dsa_key_st, ptr %100, i32 0, i32 9
  store ptr null, ptr %101, align 8, !tbaa !18
  %102 = load ptr, ptr %9, align 8, !tbaa !3
  %103 = getelementptr inbounds nuw %struct.ml_dsa_key_st, ptr %102, i32 0, i32 8
  store ptr null, ptr %103, align 8, !tbaa !25
  br label %104

104:                                              ; preds = %93, %90
  %105 = load i32, ptr %16, align 4, !tbaa !21
  store i32 %105, ptr %8, align 4
  store i32 1, ptr %17, align 4
  br label %106

106:                                              ; preds = %104, %52
  call void @llvm.lifetime.end.p0(i64 4, ptr %16) #7
  %107 = load i32, ptr %8, align 4
  ret i32 %107
}