; Function Attrs: nounwind uwtable
define range(i32 0, 2) i32 @ossl_ml_dsa_set_prekey(ptr noundef captures(address_is_null) %0, i32 noundef %1, i32 noundef %2, ptr noundef %3, i64 noundef %4, ptr noundef %5, i64 noundef %6) local_unnamed_addr #1 {
  %8 = icmp eq ptr %0, null
  br i1 %8, label %46, label %9

9:                                                ; preds = %7
  %10 = getelementptr inbounds nuw i8, ptr %0, i64 160
  %11 = load ptr, ptr %10, align 8, !tbaa !19
  %.not = icmp eq ptr %11, null
  br i1 %.not, label %12, label %46

12:                                               ; preds = %9
  %13 = getelementptr inbounds nuw i8, ptr %0, i64 168
  %14 = load ptr, ptr %13, align 8, !tbaa !20
  %.not36 = icmp eq ptr %14, null
  br i1 %.not36, label %15, label %46

15:                                               ; preds = %12
  %.not37 = icmp eq ptr %5, null
  br i1 %.not37, label %21, label %16

16:                                               ; preds = %15
  %17 = getelementptr inbounds nuw i8, ptr %0, i64 8
  %18 = load ptr, ptr %17, align 8, !tbaa !3
  %19 = getelementptr inbounds nuw i8, ptr %18, i64 64
  %20 = load i64, ptr %19, align 8, !tbaa !21
  %.not38 = icmp eq i64 %6, %20
  br i1 %.not38, label %21, label %46

21:                                               ; preds = %16, %15
  %22 = icmp ne ptr %3, null
  %23 = icmp ne i64 %4, 32
  %or.cond = and i1 %22, %23
  br i1 %or.cond, label %46, label %24

24:                                               ; preds = %21
  %25 = getelementptr inbounds nuw i8, ptr %0, i64 176
  %26 = load ptr, ptr %25, align 8, !tbaa !16
  %.not39 = icmp eq ptr %26, null
  br i1 %.not39, label %27, label %46

27:                                               ; preds = %24
  br i1 %.not37, label %31, label %28

28:                                               ; preds = %27
  %29 = tail call noalias ptr @CRYPTO_memdup(ptr noundef nonnull %5, i64 noundef %6, ptr noundef nonnull @.str, i32 noundef 56) #9
  store ptr %29, ptr %13, align 8, !tbaa !20
  %30 = icmp eq ptr %29, null
  br i1 %30, label %43, label %31

31:                                               ; preds = %28, %27
  br i1 %22, label %32, label %35

32:                                               ; preds = %31
  %33 = tail call noalias ptr @CRYPTO_memdup(ptr noundef nonnull %3, i64 noundef %4, ptr noundef nonnull @.str, i32 noundef 59) #9
  store ptr %33, ptr %25, align 8, !tbaa !16
  %34 = icmp eq ptr %33, null
  br i1 %34, label %._crit_edge, label %35

._crit_edge:                                      ; preds = %32
  %.pre = load ptr, ptr %13, align 8, !tbaa !20
  br label %43

35:                                               ; preds = %32, %31
  %36 = icmp sgt i32 %1, -1
  br i1 %36, label %37, label %39

37:                                               ; preds = %35
  %38 = getelementptr inbounds nuw i8, ptr %0, i64 188
  store i32 %1, ptr %38, align 4, !tbaa !17
  br label %39

39:                                               ; preds = %37, %35
  %40 = icmp sgt i32 %2, -1
  br i1 %40, label %41, label %46

41:                                               ; preds = %39
  %42 = getelementptr inbounds nuw i8, ptr %0, i64 184
  store i32 %2, ptr %42, align 8, !tbaa !18
  br label %46

43:                                               ; preds = %._crit_edge, %28
  %44 = phi ptr [ %.pre, %._crit_edge ], [ null, %28 ]
  tail call void @CRYPTO_free(ptr noundef %44, ptr noundef nonnull @.str, i32 noundef 69) #9
  %45 = load ptr, ptr %25, align 8, !tbaa !16
  tail call void @CRYPTO_free(ptr noundef %45, ptr noundef nonnull @.str, i32 noundef 70) #9
  tail call void @llvm.memset.p0.i64(ptr noundef nonnull align 8 dereferenceable(16) %13, i8 0, i64 16, i1 false)
  br label %46

46:                                               ; preds = %41, %39, %43, %7, %9, %12, %16, %24, %21
  %.030 = phi i32 [ 0, %21 ], [ 0, %24 ], [ 0, %16 ], [ 0, %12 ], [ 0, %9 ], [ 0, %7 ], [ 0, %43 ], [ 1, %41 ], [ 1, %39 ]
  ret i32 %.030
}